target datalayout = "e-m:e-p270:32:32-p271:32:32-p272:64:64-i64:64-i128:128-f80:128-n8:16:32:64-S128"
target triple = "x86_64-pc-linux-gnu"

@PyExc_OverflowError = external global ptr, align 8
@.str = private unnamed_addr constant [50 x i8] c"Python int too large to convert to SQLite INTEGER\00", align 1

; Function Attrs: nounwind uwtable
define hidden i64 @_pysqlite_long_as_int64(ptr noundef %0) #0 {
  %2 = alloca i64, align 8
  %3 = alloca ptr, align 8
  %4 = alloca i32, align 4
  %5 = alloca i64, align 8
  %6 = alloca i32, align 4
  store ptr %0, ptr %3, align 8, !tbaa !11
  call void @llvm.lifetime.start.p0(i64 4, ptr %4) #5
  call void @llvm.lifetime.start.p0(i64 8, ptr %5) #5
  %7 = load ptr, ptr %3, align 8, !tbaa !11
  %8 = call i64 @PyLong_AsLongLongAndOverflow(ptr noundef %7, ptr noundef %4)
  store i64 %8, ptr %5, align 8, !tbaa !23
  %9 = load i64, ptr %5, align 8, !tbaa !23
  %10 = icmp eq i64 %9, -1
  br i1 %10, label %11, label %15

11:                                               ; preds = %1
  %12 = call ptr @PyErr_Occurred()
  %13 = icmp ne ptr %12, null
  br i1 %13, label %14, label %15

14:                                               ; preds = %11
  store i64 -1, ptr %2, align 8
  store i32 1, ptr %6, align 4
  br label %23

15:                                               ; preds = %11, %1
  %16 = load i32, ptr %4, align 4, !tbaa !9
  %17 = icmp ne i32 %16, 0
  br i1 %17, label %20, label %18

18:                                               ; preds = %15
  %19 = load i64, ptr %5, align 8, !tbaa !23
  store i64 %19, ptr %2, align 8
  store i32 1, ptr %6, align 4
  br label %23

20:                                               ; preds = %15
  br label %21

21:                                               ; preds = %20
  %22 = load ptr, ptr @PyExc_OverflowError, align 8, !tbaa !11
  call void @PyErr_SetString(ptr noundef %22, ptr noundef @.str)
  store i64 -1, ptr %2, align 8
  store i32 1, ptr %6, align 4
  br label %23

23:                                               ; preds = %21, %18, %14
  call void @llvm.lifetime.end.p0(i64 8, ptr %5) #5
  call void @llvm.lifetime.end.p0(i64 4, ptr %4) #5
  %24 = load i64, ptr %2, align 8
  ret i64 %24
}