; Function Attrs: nounwind uwtable
define hidden i64 @_pysqlite_long_as_int64(ptr noundef %0) local_unnamed_addr #0 {
  %2 = alloca i32, align 4
  call void @llvm.lifetime.start.p0(i64 4, ptr nonnull %2) #3
  %3 = call i64 @PyLong_AsLongLongAndOverflow(ptr noundef %0, ptr noundef nonnull %2) #3
  %4 = icmp eq i64 %3, -1
  br i1 %4, label %5, label %7

5:                                                ; preds = %1
  %6 = call ptr @PyErr_Occurred() #3
  %.not = icmp eq ptr %6, null
  br i1 %.not, label %7, label %11

7:                                                ; preds = %5, %1
  %8 = load i32, ptr %2, align 4, !tbaa !18
  %.not3 = icmp eq i32 %8, 0
  br i1 %.not3, label %11, label %9

9:                                                ; preds = %7
  %10 = load ptr, ptr @PyExc_OverflowError, align 8, !tbaa !16
  call void @PyErr_SetString(ptr noundef %10, ptr noundef nonnull @.str) #3
  br label %11

11:                                               ; preds = %7, %5, %9
  %.0 = phi i64 [ -1, %9 ], [ -1, %5 ], [ %3, %7 ]
  call void @llvm.lifetime.end.p0(i64 4, ptr nonnull %2) #3
  ret i64 %.0
}